target datalayout = "e-m:e-p270:32:32-p271:32:32-p272:64:64-i64:64-i128:128-f80:128-n8:16:32:64-S128"
target triple = "x86_64-pc-linux-gnu"

%struct.Vec_Int_t_ = type { i32, i32, ptr }

; Function Attrs: inlinehint nounwind uwtable
define internal i32 @Abc_LitNotCond(i32 noundef %0, i32 noundef %1) #2 {
  %3 = alloca i32, align 4
  %4 = alloca i32, align 4
  store i32 %0, ptr %3, align 4, !tbaa !8
  store i32 %1, ptr %4, align 4, !tbaa !8
  %5 = load i32, ptr %3, align 4, !tbaa !8
  %6 = load i32, ptr %4, align 4, !tbaa !8
  %7 = icmp sgt i32 %6, 0
  %8 = zext i1 %7 to i32
  %9 = xor i32 %5, %8
  ret i32 %9
}

; Function Attrs: inlinehint nounwind uwtable
define internal void @Vec_IntWriteEntry(ptr noundef %0, i32 noundef %1, i32 noundef %2) #2 {
  %4 = alloca ptr, align 8
  %5 = alloca i32, align 4
  %6 = alloca i32, align 4
  store ptr %0, ptr %4, align 8, !tbaa !31
  store i32 %1, ptr %5, align 4, !tbaa !8
  store i32 %2, ptr %6, align 4, !tbaa !8
  %7 = load i32, ptr %6, align 4, !tbaa !8
  %8 = load ptr, ptr %4, align 8, !tbaa !31
  %9 = getelementptr inbounds nuw %struct.Vec_Int_t_, ptr %8, i32 0, i32 2
  %10 = load ptr, ptr %9, align 8, !tbaa !35
  %11 = load i32, ptr %5, align 4, !tbaa !8
  %12 = sext i32 %11 to i64
  %13 = getelementptr inbounds i32, ptr %10, i64 %12
  store i32 %7, ptr %13, align 4, !tbaa !8
  ret void
}

; Function Attrs: inlinehint nounwind uwtable
define internal i32 @Vec_IntEntry(ptr noundef %0, i32 noundef %1) #2 {
  %3 = alloca ptr, align 8
  %4 = alloca i32, align 4
  store ptr %0, ptr %3, align 8, !tbaa !31
  store i32 %1, ptr %4, align 4, !tbaa !8
  %5 = load ptr, ptr %3, align 8, !tbaa !31
  %6 = getelementptr inbounds nuw %struct.Vec_Int_t_, ptr %5, i32 0, i32 2
  %7 = load ptr, ptr %6, align 8, !tbaa !35
  %8 = load i32, ptr %4, align 4, !tbaa !8
  %9 = sext i32 %8 to i64
  %10 = getelementptr inbounds i32, ptr %7, i64 %9
  %11 = load i32, ptr %10, align 4, !tbaa !8
  ret i32 %11
}

; Function Attrs: inlinehint nounwind uwtable
define internal i32 @Vec_IntSize(ptr noundef %0) #2 {
  %2 = alloca ptr, align 8
  store ptr %0, ptr %2, align 8, !tbaa !31
  %3 = load ptr, ptr %2, align 8, !tbaa !31
  %4 = getelementptr inbounds nuw %struct.Vec_Int_t_, ptr %3, i32 0, i32 1
  %5 = load i32, ptr %4, align 4, !tbaa !33
  ret i32 %5
}

; Function Attrs: nounwind uwtable
define i32 @Wlc_BlastReduction(ptr noundef %0, ptr noundef %1, i32 noundef %2, i32 noundef %3) #0 {
  %5 = alloca i32, align 4
  %6 = alloca ptr, align 8
  %7 = alloca ptr, align 8
  %8 = alloca i32, align 4
  %9 = alloca i32, align 4
  %10 = alloca i32, align 4
  %11 = alloca i32, align 4
  %12 = alloca i32, align 4
  %13 = alloca i32, align 4
  %14 = alloca i32, align 4
  %15 = alloca i32, align 4
  store ptr %0, ptr %6, align 8, !tbaa !38
  store ptr %1, ptr %7, align 8, !tbaa !3
  store i32 %2, ptr %8, align 4, !tbaa !8
  store i32 %3, ptr %9, align 4, !tbaa !8
  %16 = load i32, ptr %9, align 4, !tbaa !8
  %17 = icmp eq i32 %16, 37
  br i1 %17, label %21, label %18

18:                                               ; preds = %4
  %19 = load i32, ptr %9, align 4, !tbaa !8
  %20 = icmp eq i32 %19, 40
  br i1 %20, label %21, label %44

21:                                               ; preds = %18, %4
  call void @llvm.lifetime.start.p0(i64 4, ptr %10) #12
  call void @llvm.lifetime.start.p0(i64 4, ptr %11) #12
  store i32 1, ptr %11, align 4, !tbaa !8
  store i32 0, ptr %10, align 4, !tbaa !8
  br label %22

22:                                               ; preds = %35, %21
  %23 = load i32, ptr %10, align 4, !tbaa !8
  %24 = load i32, ptr %8, align 4, !tbaa !8
  %25 = icmp slt i32 %23, %24
  br i1 %25, label %26, label %38

26:                                               ; preds = %22
  %27 = load ptr, ptr %6, align 8, !tbaa !38
  %28 = load i32, ptr %11, align 4, !tbaa !8
  %29 = load ptr, ptr %7, align 8, !tbaa !3
  %30 = load i32, ptr %10, align 4, !tbaa !8
  %31 = sext i32 %30 to i64
  %32 = getelementptr inbounds i32, ptr %29, i64 %31
  %33 = load i32, ptr %32, align 4, !tbaa !8
  %34 = call i32 @Gia_ManHashAnd(ptr noundef %27, i32 noundef %28, i32 noundef %33)
  store i32 %34, ptr %11, align 4, !tbaa !8
  br label %35

35:                                               ; preds = %26
  %36 = load i32, ptr %10, align 4, !tbaa !8
  %37 = add nsw i32 %36, 1
  store i32 %37, ptr %10, align 4, !tbaa !8
  br label %22, !llvm.loop !71

38:                                               ; preds = %22
  %39 = load i32, ptr %11, align 4, !tbaa !8
  %40 = load i32, ptr %9, align 4, !tbaa !8
  %41 = icmp eq i32 %40, 40
  %42 = zext i1 %41 to i32
  %43 = call i32 @Abc_LitNotCond(i32 noundef %39, i32 noundef %42)
  store i32 %43, ptr %5, align 4
  call void @llvm.lifetime.end.p0(i64 4, ptr %11) #12
  call void @llvm.lifetime.end.p0(i64 4, ptr %10) #12
  br label %103

44:                                               ; preds = %18
  %45 = load i32, ptr %9, align 4, !tbaa !8
  %46 = icmp eq i32 %45, 38
  br i1 %46, label %50, label %47

47:                                               ; preds = %44
  %48 = load i32, ptr %9, align 4, !tbaa !8
  %49 = icmp eq i32 %48, 41
  br i1 %49, label %50, label %73

50:                                               ; preds = %47, %44
  call void @llvm.lifetime.start.p0(i64 4, ptr %12) #12
  call void @llvm.lifetime.start.p0(i64 4, ptr %13) #12
  store i32 0, ptr %13, align 4, !tbaa !8
  store i32 0, ptr %12, align 4, !tbaa !8
  br label %51

51:                                               ; preds = %64, %50
  %52 = load i32, ptr %12, align 4, !tbaa !8
  %53 = load i32, ptr %8, align 4, !tbaa !8
  %54 = icmp slt i32 %52, %53
  br i1 %54, label %55, label %67

55:                                               ; preds = %51
  %56 = load ptr, ptr %6, align 8, !tbaa !38
  %57 = load i32, ptr %13, align 4, !tbaa !8
  %58 = load ptr, ptr %7, align 8, !tbaa !3
  %59 = load i32, ptr %12, align 4, !tbaa !8
  %60 = sext i32 %59 to i64
  %61 = getelementptr inbounds i32, ptr %58, i64 %60
  %62 = load i32, ptr %61, align 4, !tbaa !8
  %63 = call i32 @Gia_ManHashOr(ptr noundef %56, i32 noundef %57, i32 noundef %62)
  store i32 %63, ptr %13, align 4, !tbaa !8
  br label %64

64:                                               ; preds = %55
  %65 = load i32, ptr %12, align 4, !tbaa !8
  %66 = add nsw i32 %65, 1
  store i32 %66, ptr %12, align 4, !tbaa !8
  br label %51, !llvm.loop !72

67:                                               ; preds = %51
  %68 = load i32, ptr %13, align 4, !tbaa !8
  %69 = load i32, ptr %9, align 4, !tbaa !8
  %70 = icmp eq i32 %69, 41
  %71 = zext i1 %70 to i32
  %72 = call i32 @Abc_LitNotCond(i32 noundef %68, i32 noundef %71)
  store i32 %72, ptr %5, align 4
  call void @llvm.lifetime.end.p0(i64 4, ptr %13) #12
  call void @llvm.lifetime.end.p0(i64 4, ptr %12) #12
  br label %103

73:                                               ; preds = %47
  %74 = load i32, ptr %9, align 4, !tbaa !8
  %75 = icmp eq i32 %74, 39
  br i1 %75, label %79, label %76

76:                                               ; preds = %73
  %77 = load i32, ptr %9, align 4, !tbaa !8
  %78 = icmp eq i32 %77, 42
  br i1 %78, label %79, label %102

79:                                               ; preds = %76, %73
  call void @llvm.lifetime.start.p0(i64 4, ptr %14) #12
  call void @llvm.lifetime.start.p0(i64 4, ptr %15) #12
  store i32 0, ptr %15, align 4, !tbaa !8
  store i32 0, ptr %14, align 4, !tbaa !8
  br label %80

80:                                               ; preds = %93, %79
  %81 = load i32, ptr %14, align 4, !tbaa !8
  %82 = load i32, ptr %8, align 4, !tbaa !8
  %83 = icmp slt i32 %81, %82
  br i1 %83, label %84, label %96

84:                                               ; preds = %80
  %85 = load ptr, ptr %6, align 8, !tbaa !38
  %86 = load i32, ptr %15, align 4, !tbaa !8
  %87 = load ptr, ptr %7, align 8, !tbaa !3
  %88 = load i32, ptr %14, align 4, !tbaa !8
  %89 = sext i32 %88 to i64
  %90 = getelementptr inbounds i32, ptr %87, i64 %89
  %91 = load i32, ptr %90, align 4, !tbaa !8
  %92 = call i32 @Gia_ManHashXor(ptr noundef %85, i32 noundef %86, i32 noundef %91)
  store i32 %92, ptr %15, align 4, !tbaa !8
  br label %93

93:                                               ; preds = %84
  %94 = load i32, ptr %14, align 4, !tbaa !8
  %95 = add nsw i32 %94, 1
  store i32 %95, ptr %14, align 4, !tbaa !8
  br label %80, !llvm.loop !73

96:                                               ; preds = %80
  %97 = load i32, ptr %15, align 4, !tbaa !8
  %98 = load i32, ptr %9, align 4, !tbaa !8
  %99 = icmp eq i32 %98, 42
  %100 = zext i1 %99 to i32
  %101 = call i32 @Abc_LitNotCond(i32 noundef %97, i32 noundef %100)
  store i32 %101, ptr %5, align 4
  call void @llvm.lifetime.end.p0(i64 4, ptr %15) #12
  call void @llvm.lifetime.end.p0(i64 4, ptr %14) #12
  br label %103

102:                                              ; preds = %76
  store i32 -1, ptr %5, align 4
  br label %103

103:                                              ; preds = %102, %96, %67, %38
  %104 = load i32, ptr %5, align 4
  ret i32 %104
}

; Function Attrs: nounwind uwtable
define void @Wlc_BlastZeroCondition(ptr noundef %0, ptr noundef %1, i32 noundef %2, ptr noundef %3) #0 {
  %5 = alloca ptr, align 8
  %6 = alloca ptr, align 8
  %7 = alloca i32, align 4
  %8 = alloca ptr, align 8
  %9 = alloca i32, align 4
  %10 = alloca i32, align 4
  %11 = alloca i32, align 4
  store ptr %0, ptr %5, align 8, !tbaa !38
  store ptr %1, ptr %6, align 8, !tbaa !3
  store i32 %2, ptr %7, align 4, !tbaa !8
  store ptr %3, ptr %8, align 8, !tbaa !31
  call void @llvm.lifetime.start.p0(i64 4, ptr %9) #12
  call void @llvm.lifetime.start.p0(i64 4, ptr %10) #12
  call void @llvm.lifetime.start.p0(i64 4, ptr %11) #12
  %12 = load ptr, ptr %5, align 8, !tbaa !38
  %13 = load ptr, ptr %6, align 8, !tbaa !3
  %14 = load i32, ptr %7, align 4, !tbaa !8
  %15 = call i32 @Wlc_BlastReduction(ptr noundef %12, ptr noundef %13, i32 noundef %14, i32 noundef 38)
  store i32 %15, ptr %11, align 4, !tbaa !8
  store i32 0, ptr %9, align 4, !tbaa !8
  br label %16

16:                                               ; preds = %34, %4
  %17 = load i32, ptr %9, align 4, !tbaa !8
  %18 = load ptr, ptr %8, align 8, !tbaa !31
  %19 = call i32 @Vec_IntSize(ptr noundef %18)
  %20 = icmp slt i32 %17, %19
  br i1 %20, label %21, label %25

21:                                               ; preds = %16
  %22 = load ptr, ptr %8, align 8, !tbaa !31
  %23 = load i32, ptr %9, align 4, !tbaa !8
  %24 = call i32 @Vec_IntEntry(ptr noundef %22, i32 noundef %23)
  store i32 %24, ptr %10, align 4, !tbaa !8
  br label %25

25:                                               ; preds = %21, %16
  %26 = phi i1 [ false, %16 ], [ true, %21 ]
  br i1 %26, label %27, label %37

27:                                               ; preds = %25
  %28 = load ptr, ptr %8, align 8, !tbaa !31
  %29 = load i32, ptr %9, align 4, !tbaa !8
  %30 = load ptr, ptr %5, align 8, !tbaa !38
  %31 = load i32, ptr %11, align 4, !tbaa !8
  %32 = load i32, ptr %10, align 4, !tbaa !8
  %33 = call i32 @Gia_ManHashAnd(ptr noundef %30, i32 noundef %31, i32 noundef %32)
  call void @Vec_IntWriteEntry(ptr noundef %28, i32 noundef %29, i32 noundef %33)
  br label %34

34:                                               ; preds = %27
  %35 = load i32, ptr %9, align 4, !tbaa !8
  %36 = add nsw i32 %35, 1
  store i32 %36, ptr %9, align 4, !tbaa !8
  br label %16, !llvm.loop !115

37:                                               ; preds = %25
  call void @llvm.lifetime.end.p0(i64 4, ptr %11) #12
  call void @llvm.lifetime.end.p0(i64 4, ptr %10) #12
  call void @llvm.lifetime.end.p0(i64 4, ptr %9) #12
  ret void
}