; Function Attrs: nounwind uwtable
define void @Wlc_BlastZeroCondition(ptr noundef %0, ptr noundef readonly captures(none) %1, i32 noundef %2, ptr noundef readonly captures(none) %3) local_unnamed_addr #2 {
  %5 = icmp sgt i32 %2, 0
  br i1 %5, label %.lr.ph50.preheader.i, label %Wlc_BlastReduction.exit

.lr.ph50.preheader.i:                             ; preds = %4
  %wide.trip.count65.i = zext nneg i32 %2 to i64
  br label %.lr.ph50.i

.lr.ph50.i:                                       ; preds = %.lr.ph50.i, %.lr.ph50.preheader.i
  %indvars.iv62.i = phi i64 [ 0, %.lr.ph50.preheader.i ], [ %indvars.iv.next63.i, %.lr.ph50.i ]
  %.03948.i = phi i32 [ 0, %.lr.ph50.preheader.i ], [ %8, %.lr.ph50.i ]
  %6 = getelementptr inbounds nuw i32, ptr %1, i64 %indvars.iv62.i
  %7 = load i32, ptr %6, align 4, !tbaa !3
  %8 = tail call i32 @Gia_ManHashOr(ptr noundef %0, i32 noundef %.03948.i, i32 noundef %7) #23
  %indvars.iv.next63.i = add nuw nsw i64 %indvars.iv62.i, 1
  %exitcond66.not.i = icmp eq i64 %indvars.iv.next63.i, %wide.trip.count65.i
  br i1 %exitcond66.not.i, label %Wlc_BlastReduction.exit, label %.lr.ph50.i, !llvm.loop !62

Wlc_BlastReduction.exit:                          ; preds = %.lr.ph50.i, %4
  %.039.lcssa.i = phi i32 [ 0, %4 ], [ %8, %.lr.ph50.i ]
  %9 = getelementptr i8, ptr %3, i64 4
  %.val1314 = load i32, ptr %9, align 4, !tbaa !23
  %10 = icmp sgt i32 %.val1314, 0
  br i1 %10, label %.lr.ph, label %.critedge

.lr.ph:                                           ; preds = %Wlc_BlastReduction.exit
  %11 = getelementptr i8, ptr %3, i64 8
  %.val12.pre = load ptr, ptr %11, align 8, !tbaa !22
  br label %12

12:                                               ; preds = %.lr.ph, %12
  %.val12 = phi ptr [ %.val12.pre, %.lr.ph ], [ %.val, %12 ]
  %indvars.iv = phi i64 [ 0, %.lr.ph ], [ %indvars.iv.next, %12 ]
  %13 = getelementptr inbounds nuw i32, ptr %.val12, i64 %indvars.iv
  %14 = load i32, ptr %13, align 4, !tbaa !3
  %15 = tail call i32 @Gia_ManHashAnd(ptr noundef %0, i32 noundef %.039.lcssa.i, i32 noundef %14) #23
  %.val = load ptr, ptr %11, align 8, !tbaa !22
  %16 = getelementptr inbounds nuw i32, ptr %.val, i64 %indvars.iv
  store i32 %15, ptr %16, align 4, !tbaa !3
  %indvars.iv.next = add nuw nsw i64 %indvars.iv, 1
  %.val13 = load i32, ptr %9, align 4, !tbaa !23
  %17 = sext i32 %.val13 to i64
  %18 = icmp slt i64 %indvars.iv.next, %17
  br i1 %18, label %12, label %.critedge, !llvm.loop !101

.critedge:                                        ; preds = %12, %Wlc_BlastReduction.exit
  ret void
}